target datalayout = "e-m:e-p270:32:32-p271:32:32-p272:64:64-i64:64-i128:128-f80:128-n8:16:32:64-S128"
target triple = "x86_64-pc-linux-gnu"

%class.AccessFlags = type { i32 }
%class.ClassFileParser = type { ptr, ptr, ptr, i8, i8, i32, ptr, ptr, ptr, ptr, ptr, ptr, ptr, i16, ptr, ptr, ptr, ptr, ptr, ptr, ptr, ptr, ptr, ptr, ptr, ptr, ptr, ptr, ptr, ptr, ptr, [128 x i8], i32, i32, i32, %class.Handle, %class.AccessFlags, i32, i16, i8, i32, ptr, i16, i16, i16, i16, i16, i16, i16, i16, i8, i8, i8, i8, i8, i8, i8, i8, i8, i32 }
%class.Handle = type { ptr }
%class.ThreadShadow = type <{ ptr, ptr, ptr, i32, [4 x i8] }>
%class.anon = type { i8 }
%class.Array.18 = type <{ i32, [1 x i8], [3 x i8] }>

; Function Attrs: mustprogress nounwind uwtable
define linkonce_odr hidden noundef i32 @_Z4MAX2IiET_S0_S0_(i32 noundef %0, i32 noundef %1) #1 comdat {
  %3 = alloca i32, align 4
  %4 = alloca i32, align 4
  store i32 %0, ptr %3, align 4
  store i32 %1, ptr %4, align 4
  %5 = load i32, ptr %3, align 4
  %6 = load i32, ptr %4, align 4
  %7 = icmp sgt i32 %5, %6
  br i1 %7, label %8, label %10

8:                                                ; preds = %2
  %9 = load i32, ptr %3, align 4
  br label %12

10:                                               ; preds = %2
  %11 = load i32, ptr %4, align 4
  br label %12

12:                                               ; preds = %10, %8
  %13 = phi i32 [ %9, %8 ], [ %11, %10 ]
  ret i32 %13
}

; Function Attrs: mustprogress nounwind uwtable
define linkonce_odr hidden noundef i64 @_Z10align_downImiTnNSt9enable_ifIXcvbsr3std11is_integralIT_EE5valueEiE4typeELi0EES1_S1_T0_(i64 noundef %0, i32 noundef %1) #1 comdat {
  %3 = alloca i64, align 8
  %4 = alloca i32, align 4
  %5 = alloca i64, align 8
  store i64 %0, ptr %3, align 8
  store i32 %1, ptr %4, align 4
  %6 = load i64, ptr %3, align 8
  %7 = load i32, ptr %4, align 4
  %8 = call noundef i32 @_ZL14alignment_maskIiTnNSt9enable_ifIXcvbsr3std11is_integralIT_EE5valueEiE4typeELi0EES1_S1_(i32 noundef %7)
  %9 = sext i32 %8 to i64
  %10 = xor i64 %9, -1
  %11 = and i64 %6, %10
  store i64 %11, ptr %5, align 8
  %12 = load i64, ptr %5, align 8
  ret i64 %12
}

; Function Attrs: mustprogress nounwind uwtable
define linkonce_odr hidden noundef i64 @_Z12checked_castImmET_T0_(i64 noundef %0) #1 comdat {
  %2 = alloca i64, align 8
  %3 = alloca i64, align 8
  store i64 %0, ptr %2, align 8
  %4 = load i64, ptr %2, align 8
  store i64 %4, ptr %3, align 8
  %5 = load i64, ptr %3, align 8
  ret i64 %5
}

; Function Attrs: mustprogress nounwind uwtable
define internal noundef i32 @_ZL14alignment_maskIiTnNSt9enable_ifIXcvbsr3std11is_integralIT_EE5valueEiE4typeELi0EES1_S1_(i32 noundef %0) #1 {
  %2 = alloca i32, align 4
  store i32 %0, ptr %2, align 4
  %3 = load i32, ptr %2, align 4
  %4 = sub nsw i32 %3, 1
  ret i32 %4
}

; Function Attrs: mustprogress nounwind uwtable
define linkonce_odr hidden noundef i64 @_ZN5ArrayIhE11byte_sizeofEim(i32 noundef %0, i64 noundef %1) #1 comdat align 2 {
  %3 = alloca i32, align 4
  %4 = alloca i64, align 8
  store i32 %0, ptr %3, align 4
  store i64 %1, ptr %4, align 8
  %5 = load i32, ptr %3, align 4
  %6 = sub nsw i32 %5, 1
  %7 = call noundef i32 @_Z4MAX2IiET_S0_S0_(i32 noundef %6, i32 noundef 0)
  %8 = sext i32 %7 to i64
  %9 = load i64, ptr %4, align 8
  %10 = mul i64 %8, %9
  %11 = add i64 8, %10
  ret i64 %11
}

; Function Attrs: mustprogress nounwind uwtable
define linkonce_odr hidden noundef i64 @_ZZN5ArrayIhE20base_offset_in_bytesEvENKUlvE_clEv(ptr noundef nonnull align 1 dereferenceable(1) %0) #1 comdat align 2 {
  %2 = alloca ptr, align 8
  %3 = alloca [8 x i8], align 16
  %4 = alloca ptr, align 8
  %5 = alloca ptr, align 8
  store ptr %0, ptr %2, align 8
  %6 = getelementptr inbounds [8 x i8], ptr %3, i64 0, i64 0
  store ptr %6, ptr %4, align 8
  %7 = load ptr, ptr %4, align 8
  %8 = getelementptr inbounds %class.Array.18, ptr %7, i32 0, i32 1
  store ptr %8, ptr %5, align 8
  %9 = load ptr, ptr %5, align 8
  %10 = getelementptr inbounds [8 x i8], ptr %3, i64 0, i64 0
  %11 = ptrtoint ptr %9 to i64
  %12 = ptrtoint ptr %10 to i64
  %13 = sub i64 %11, %12
  ret i64 %13
}

; Function Attrs: mustprogress nounwind uwtable
define linkonce_odr hidden noundef i64 @_Z8align_upImiTnNSt9enable_ifIXcvbsr3std11is_integralIT_EE5valueEiE4typeELi0EES1_S1_T0_(i64 noundef %0, i32 noundef %1) #1 comdat {
  %3 = alloca i64, align 8
  %4 = alloca i32, align 4
  %5 = alloca i64, align 8
  store i64 %0, ptr %3, align 8
  store i32 %1, ptr %4, align 4
  %6 = load i64, ptr %3, align 8
  %7 = load i32, ptr %4, align 4
  %8 = call noundef i32 @_ZL14alignment_maskIiTnNSt9enable_ifIXcvbsr3std11is_integralIT_EE5valueEiE4typeELi0EES1_S1_(i32 noundef %7)
  %9 = sext i32 %8 to i64
  %10 = add i64 %6, %9
  %11 = call noundef i64 @_Z12checked_castImmET_T0_(i64 noundef %10)
  store i64 %11, ptr %5, align 8
  %12 = load i64, ptr %5, align 8
  %13 = load i32, ptr %4, align 4
  %14 = call noundef i64 @_Z10align_downImiTnNSt9enable_ifIXcvbsr3std11is_integralIT_EE5valueEiE4typeELi0EES1_S1_T0_(i64 noundef %12, i32 noundef %13)
  ret i64 %14
}

; Function Attrs: mustprogress nounwind uwtable
define linkonce_odr hidden noundef i64 @_ZN5ArrayIhE11byte_sizeofEi(i32 noundef %0) #1 comdat align 2 {
  %2 = alloca i32, align 4
  store i32 %0, ptr %2, align 4
  %3 = load i32, ptr %2, align 4
  %4 = call noundef i64 @_ZN5ArrayIhE11byte_sizeofEim(i32 noundef %3, i64 noundef 1)
  ret i64 %4
}

; Function Attrs: mustprogress nounwind uwtable
define linkonce_odr hidden noundef i32 @_ZN5ArrayIhE20base_offset_in_bytesEv() #1 comdat align 2 {
  %1 = alloca %class.anon, align 1
  %2 = call noundef i64 @_ZZN5ArrayIhE20base_offset_in_bytesEvENKUlvE_clEv(ptr noundef nonnull align 1 dereferenceable(1) %1)
  %3 = trunc i64 %2 to i32
  ret i32 %3
}

; Function Attrs: mustprogress nounwind uwtable
define linkonce_odr hidden noundef i32 @_ZN12MetaspaceObj10array_typeEm(i64 noundef %0) #1 comdat align 2 {
  %2 = alloca i32, align 4
  %3 = alloca i64, align 8
  store i64 %0, ptr %3, align 8
  %4 = load i64, ptr %3, align 8
  switch i64 %4, label %9 [
    i64 1, label %5
    i64 2, label %6
    i64 4, label %7
    i64 8, label %8
  ]

5:                                                ; preds = %1
  store i32 2, ptr %2, align 4
  br label %10

6:                                                ; preds = %1
  store i32 3, ptr %2, align 4
  br label %10

7:                                                ; preds = %1
  store i32 4, ptr %2, align 4
  br label %10

8:                                                ; preds = %1
  store i32 5, ptr %2, align 4
  br label %10

9:                                                ; preds = %1
  store i32 6, ptr %2, align 4
  br label %10

10:                                               ; preds = %9, %8, %7, %6, %5
  %11 = load i32, ptr %2, align 4
  ret i32 %11
}

; Function Attrs: mustprogress nounwind uwtable
define linkonce_odr hidden noundef i32 @_ZN5ArrayIhE4sizeEi(i32 noundef %0) #1 comdat align 2 {
  %2 = alloca i32, align 4
  %3 = alloca i64, align 8
  %4 = alloca i64, align 8
  store i32 %0, ptr %2, align 4
  %5 = load i32, ptr %2, align 4
  %6 = call noundef i64 @_ZN5ArrayIhE11byte_sizeofEi(i32 noundef %5)
  %7 = call noundef i64 @_Z8align_upImiTnNSt9enable_ifIXcvbsr3std11is_integralIT_EE5valueEiE4typeELi0EES1_S1_T0_(i64 noundef %6, i32 noundef 8)
  store i64 %7, ptr %3, align 8
  %8 = load i64, ptr %3, align 8
  %9 = udiv i64 %8, 8
  store i64 %9, ptr %4, align 8
  %10 = load i64, ptr %4, align 8
  %11 = trunc i64 %10 to i32
  ret i32 %11
}

; Function Attrs: mustprogress nounwind uwtable
define linkonce_odr hidden noundef ptr @_ZN5ArrayIhE4dataEv(ptr noundef nonnull align 4 dereferenceable(5) %0) #1 comdat align 2 {
  %2 = alloca ptr, align 8
  store ptr %0, ptr %2, align 8
  %3 = load ptr, ptr %2, align 8
  %4 = call noundef i32 @_ZN5ArrayIhE20base_offset_in_bytesEv()
  %5 = sext i32 %4 to i64
  %6 = getelementptr inbounds i8, ptr %3, i64 %5
  ret ptr %6
}

; Function Attrs: mustprogress nounwind uwtable
define linkonce_odr hidden void @_ZN5ArrayIhEC2Ei(ptr noundef nonnull align 4 dereferenceable(5) %0, i32 noundef %1) unnamed_addr #1 comdat align 2 {
  %3 = alloca ptr, align 8
  %4 = alloca i32, align 4
  store ptr %0, ptr %3, align 8
  store i32 %1, ptr %4, align 4
  %5 = load ptr, ptr %3, align 8
  %6 = getelementptr inbounds %class.Array.18, ptr %5, i32 0, i32 0
  %7 = load i32, ptr %4, align 4
  store i32 %7, ptr %6, align 4
  ret void
}

; Function Attrs: mustprogress nounwind uwtable
define linkonce_odr hidden noundef ptr @_ZN5ArrayIhEnwEmP15ClassLoaderDataiP10JavaThread(i64 noundef %0, ptr noundef %1, i32 noundef %2, ptr noundef %3) #1 comdat align 2 {
  %5 = alloca i64, align 8
  %6 = alloca ptr, align 8
  %7 = alloca i32, align 4
  %8 = alloca ptr, align 8
  %9 = alloca i64, align 8
  store i64 %0, ptr %5, align 8
  store ptr %1, ptr %6, align 8
  store i32 %2, ptr %7, align 4
  store ptr %3, ptr %8, align 8
  %10 = load i32, ptr %7, align 4
  %11 = call noundef i32 @_ZN5ArrayIhE4sizeEi(i32 noundef %10)
  %12 = sext i32 %11 to i64
  store i64 %12, ptr %9, align 8
  %13 = load ptr, ptr %6, align 8
  %14 = load i64, ptr %9, align 8
  %15 = call noundef i32 @_ZN12MetaspaceObj10array_typeEm(i64 noundef 1)
  %16 = load ptr, ptr %8, align 8
  %17 = call noundef ptr @_ZN9Metaspace8allocateEP15ClassLoaderDatamN12MetaspaceObj4TypeEP10JavaThread(ptr noundef %13, i64 noundef %14, i32 noundef %15, ptr noundef %16)
  ret ptr %17
}

; Function Attrs: mustprogress nounwind uwtable
define linkonce_odr hidden void @_ZN5ArrayIhE6at_putEiRKh(ptr noundef nonnull align 4 dereferenceable(5) %0, i32 noundef %1, ptr noundef nonnull align 1 dereferenceable(1) %2) #1 comdat align 2 {
  %4 = alloca ptr, align 8
  %5 = alloca i32, align 4
  %6 = alloca ptr, align 8
  store ptr %0, ptr %4, align 8
  store i32 %1, ptr %5, align 4
  store ptr %2, ptr %6, align 8
  %7 = load ptr, ptr %4, align 8
  %8 = load ptr, ptr %6, align 8
  %9 = load i8, ptr %8, align 1
  %10 = call noundef ptr @_ZN5ArrayIhE4dataEv(ptr noundef nonnull align 4 dereferenceable(5) %7)
  %11 = load i32, ptr %5, align 4
  %12 = sext i32 %11 to i64
  %13 = getelementptr inbounds i8, ptr %10, i64 %12
  store i8 %9, ptr %13, align 1
  ret void
}

; Function Attrs: mustprogress nounwind uwtable
define linkonce_odr hidden noundef zeroext i1 @_ZNK12ThreadShadow21has_pending_exceptionEv(ptr noundef nonnull align 8 dereferenceable(28) %0) #1 comdat align 2 {
  %2 = alloca ptr, align 8
  store ptr %0, ptr %2, align 8
  %3 = load ptr, ptr %2, align 8
  %4 = getelementptr inbounds %class.ThreadShadow, ptr %3, i32 0, i32 1
  %5 = load ptr, ptr %4, align 8
  %6 = icmp ne ptr %5, null
  ret i1 %6
}

; Function Attrs: mustprogress nounwind uwtable
define linkonce_odr hidden noundef ptr @_ZN15MetadataFactory9new_arrayIhEEP5ArrayIT_EP15ClassLoaderDataiP10JavaThread(ptr noundef %0, i32 noundef %1, ptr noundef %2) #1 comdat align 2 {
  %4 = alloca ptr, align 8
  %5 = alloca i32, align 4
  %6 = alloca ptr, align 8
  store ptr %0, ptr %4, align 8
  store i32 %1, ptr %5, align 4
  store ptr %2, ptr %6, align 8
  %7 = load ptr, ptr %4, align 8
  %8 = load i32, ptr %5, align 4
  %9 = load ptr, ptr %6, align 8
  %10 = call noundef ptr @_ZN5ArrayIhEnwEmP15ClassLoaderDataiP10JavaThread(i64 noundef 8, ptr noundef %7, i32 noundef %8, ptr noundef %9) #11
  %11 = icmp eq ptr %10, null
  br i1 %11, label %14, label %12

12:                                               ; preds = %3
  %13 = load i32, ptr %5, align 4
  call void @_ZN5ArrayIhEC2Ei(ptr noundef nonnull align 4 dereferenceable(5) %10, i32 noundef %13)
  br label %14

14:                                               ; preds = %12, %3
  %15 = phi ptr [ %10, %12 ], [ null, %3 ]
  ret ptr %15
}

; Function Attrs: mustprogress nounwind uwtable
define hidden noundef ptr @_ZN15ClassFileParser20assemble_annotationsEPKhiS1_iP10JavaThread(ptr noundef nonnull align 8 dereferenceable(440) %0, ptr noundef %1, i32 noundef %2, ptr noundef %3, i32 noundef %4, ptr noundef %5) #1 align 2 {
  %7 = alloca ptr, align 8
  %8 = alloca ptr, align 8
  %9 = alloca ptr, align 8
  %10 = alloca i32, align 4
  %11 = alloca ptr, align 8
  %12 = alloca i32, align 4
  %13 = alloca ptr, align 8
  %14 = alloca ptr, align 8
  %15 = alloca i32, align 4
  %16 = alloca i32, align 4
  %17 = alloca i32, align 4
  store ptr %0, ptr %8, align 8
  store ptr %1, ptr %9, align 8
  store i32 %2, ptr %10, align 4
  store ptr %3, ptr %11, align 8
  store i32 %4, ptr %12, align 4
  store ptr %5, ptr %13, align 8
  %18 = load ptr, ptr %8, align 8
  store ptr null, ptr %14, align 8
  %19 = load ptr, ptr %9, align 8
  %20 = icmp ne ptr %19, null
  br i1 %20, label %24, label %21

21:                                               ; preds = %6
  %22 = load ptr, ptr %11, align 8
  %23 = icmp ne ptr %22, null
  br i1 %23, label %24, label %78

24:                                               ; preds = %21, %6
  %25 = getelementptr inbounds %class.ClassFileParser, ptr %18, i32 0, i32 2
  %26 = load ptr, ptr %25, align 8
  %27 = load i32, ptr %10, align 4
  %28 = load i32, ptr %12, align 4
  %29 = add nsw i32 %27, %28
  %30 = load ptr, ptr %13, align 8
  %31 = call noundef ptr @_ZN15MetadataFactory9new_arrayIhEEP5ArrayIT_EP15ClassLoaderDataiP10JavaThread(ptr noundef %26, i32 noundef %29, ptr noundef %30)
  store ptr %31, ptr %14, align 8
  %32 = load ptr, ptr %13, align 8
  %33 = call noundef zeroext i1 @_ZNK12ThreadShadow21has_pending_exceptionEv(ptr noundef nonnull align 8 dereferenceable(28) %32)
  br i1 %33, label %34, label %36

34:                                               ; preds = %24
  %35 = load ptr, ptr %14, align 8
  store ptr %35, ptr %7, align 8
  br label %80

36:                                               ; preds = %24
  %37 = load ptr, ptr %9, align 8
  %38 = icmp ne ptr %37, null
  br i1 %38, label %39, label %55

39:                                               ; preds = %36
  store i32 0, ptr %15, align 4
  br label %40

40:                                               ; preds = %51, %39
  %41 = load i32, ptr %15, align 4
  %42 = load i32, ptr %10, align 4
  %43 = icmp slt i32 %41, %42
  br i1 %43, label %44, label %54

44:                                               ; preds = %40
  %45 = load ptr, ptr %14, align 8
  %46 = load i32, ptr %15, align 4
  %47 = load ptr, ptr %9, align 8
  %48 = load i32, ptr %15, align 4
  %49 = sext i32 %48 to i64
  %50 = getelementptr inbounds i8, ptr %47, i64 %49
  call void @_ZN5ArrayIhE6at_putEiRKh(ptr noundef nonnull align 4 dereferenceable(5) %45, i32 noundef %46, ptr noundef nonnull align 1 dereferenceable(1) %50)
  br label %51

51:                                               ; preds = %44
  %52 = load i32, ptr %15, align 4
  %53 = add nsw i32 %52, 1
  store i32 %53, ptr %15, align 4
  br label %40, !llvm.loop !17

54:                                               ; preds = %40
  br label %55

55:                                               ; preds = %54, %36
  %56 = load ptr, ptr %11, align 8
  %57 = icmp ne ptr %56, null
  br i1 %57, label %58, label %77

58:                                               ; preds = %55
  store i32 0, ptr %16, align 4
  br label %59

59:                                               ; preds = %73, %58
  %60 = load i32, ptr %16, align 4
  %61 = load i32, ptr %12, align 4
  %62 = icmp slt i32 %60, %61
  br i1 %62, label %63, label %76

63:                                               ; preds = %59
  %64 = load i32, ptr %10, align 4
  %65 = load i32, ptr %16, align 4
  %66 = add nsw i32 %64, %65
  store i32 %66, ptr %17, align 4
  %67 = load ptr, ptr %14, align 8
  %68 = load i32, ptr %17, align 4
  %69 = load ptr, ptr %11, align 8
  %70 = load i32, ptr %16, align 4
  %71 = sext i32 %70 to i64
  %72 = getelementptr inbounds i8, ptr %69, i64 %71
  call void @_ZN5ArrayIhE6at_putEiRKh(ptr noundef nonnull align 4 dereferenceable(5) %67, i32 noundef %68, ptr noundef nonnull align 1 dereferenceable(1) %72)
  br label %73

73:                                               ; preds = %63
  %74 = load i32, ptr %16, align 4
  %75 = add nsw i32 %74, 1
  store i32 %75, ptr %16, align 4
  br label %59, !llvm.loop !18

76:                                               ; preds = %59
  br label %77

77:                                               ; preds = %76, %55
  br label %78

78:                                               ; preds = %77, %21
  %79 = load ptr, ptr %14, align 8
  store ptr %79, ptr %7, align 8
  br label %80

80:                                               ; preds = %78, %34
  %81 = load ptr, ptr %7, align 8
  ret ptr %81
}