; Function Attrs: mustprogress nounwind uwtable
define hidden noundef ptr @_ZN15ClassFileParser20assemble_annotationsEPKhiS1_iP10JavaThread(ptr nocapture noundef nonnull readonly align 8 dereferenceable(440) %0, ptr noundef readonly %1, i32 noundef %2, ptr noundef readonly %3, i32 noundef %4, ptr noundef %5) local_unnamed_addr #1 align 2 {
  %7 = icmp ne ptr %1, null
  %8 = icmp ne ptr %3, null
  %or.cond = or i1 %7, %8
  br i1 %or.cond, label %9, label %.loopexit

9:                                                ; preds = %6
  %10 = getelementptr inbounds i8, ptr %0, i64 16
  %11 = load ptr, ptr %10, align 8
  %12 = add nsw i32 %4, %2
  %13 = tail call i32 @llvm.smax.i32(i32 %12, i32 1)
  %narrow.i.i.i = add nuw i32 %13, 14
  %14 = lshr i32 %narrow.i.i.i, 3
  %15 = zext nneg i32 %14 to i64
  %16 = tail call noundef ptr @_ZN9Metaspace8allocateEP15ClassLoaderDatamN12MetaspaceObj4TypeEP10JavaThread(ptr noundef %11, i64 noundef %15, i32 noundef 2, ptr noundef %5) #23
  %17 = icmp eq ptr %16, null
  br i1 %17, label %_ZN15MetadataFactory9new_arrayIhEEP5ArrayIT_EP15ClassLoaderDataiP10JavaThread.exit, label %18

18:                                               ; preds = %9
  store i32 %12, ptr %16, align 4
  br label %_ZN15MetadataFactory9new_arrayIhEEP5ArrayIT_EP15ClassLoaderDataiP10JavaThread.exit

_ZN15MetadataFactory9new_arrayIhEEP5ArrayIT_EP15ClassLoaderDataiP10JavaThread.exit: ; preds = %9, %18
  %19 = getelementptr inbounds i8, ptr %5, i64 8
  %20 = load ptr, ptr %19, align 8
  %.not = icmp eq ptr %20, null
  br i1 %.not, label %21, label %.loopexit

21:                                               ; preds = %_ZN15MetadataFactory9new_arrayIhEEP5ArrayIT_EP15ClassLoaderDataiP10JavaThread.exit
  %22 = icmp sgt i32 %2, 0
  %or.cond38 = and i1 %7, %22
  br i1 %or.cond38, label %.lr.ph, label %.loopexit34

.lr.ph:                                           ; preds = %21
  %23 = getelementptr inbounds i8, ptr %16, i64 4
  %wide.trip.count = zext nneg i32 %2 to i64
  br label %24

24:                                               ; preds = %.lr.ph, %24
  %indvars.iv = phi i64 [ 0, %.lr.ph ], [ %indvars.iv.next, %24 ]
  %25 = getelementptr inbounds i8, ptr %1, i64 %indvars.iv
  %26 = load i8, ptr %25, align 1
  %27 = getelementptr inbounds i8, ptr %23, i64 %indvars.iv
  store i8 %26, ptr %27, align 1
  %indvars.iv.next = add nuw nsw i64 %indvars.iv, 1
  %exitcond.not = icmp eq i64 %indvars.iv.next, %wide.trip.count
  br i1 %exitcond.not, label %.loopexit34, label %24, !llvm.loop !17

.loopexit34:                                      ; preds = %24, %21
  %28 = icmp sgt i32 %4, 0
  %or.cond39 = and i1 %8, %28
  br i1 %or.cond39, label %.lr.ph37, label %.loopexit

.lr.ph37:                                         ; preds = %.loopexit34
  %29 = getelementptr inbounds i8, ptr %16, i64 4
  %30 = sext i32 %2 to i64
  %wide.trip.count44 = zext nneg i32 %4 to i64
  %invariant.gep = getelementptr i8, ptr %29, i64 %30
  br label %31

31:                                               ; preds = %.lr.ph37, %31
  %indvars.iv41 = phi i64 [ 0, %.lr.ph37 ], [ %indvars.iv.next42, %31 ]
  %32 = getelementptr inbounds i8, ptr %3, i64 %indvars.iv41
  %33 = load i8, ptr %32, align 1
  %gep = getelementptr i8, ptr %invariant.gep, i64 %indvars.iv41
  store i8 %33, ptr %gep, align 1
  %indvars.iv.next42 = add nuw nsw i64 %indvars.iv41, 1
  %exitcond45.not = icmp eq i64 %indvars.iv.next42, %wide.trip.count44
  br i1 %exitcond45.not, label %.loopexit, label %31, !llvm.loop !18

.loopexit:                                        ; preds = %31, %6, %.loopexit34, %_ZN15MetadataFactory9new_arrayIhEEP5ArrayIT_EP15ClassLoaderDataiP10JavaThread.exit
  %.0 = phi ptr [ %16, %_ZN15MetadataFactory9new_arrayIhEEP5ArrayIT_EP15ClassLoaderDataiP10JavaThread.exit ], [ %16, %.loopexit34 ], [ null, %6 ], [ %16, %31 ]
  ret ptr %.0
}